target datalayout = "e-m:e-p270:32:32-p271:32:32-p272:64:64-i64:64-i128:128-f80:128-n8:16:32:64-S128"
target triple = "x86_64-pc-linux-gnu"

%struct.Prs_VerPrim_t_ = type { i32, ptr }

; Function Attrs: nounwind uwtable
define internal i32 @Prs_ManIsVerilogPrim(ptr noundef %0) #0 {
  %2 = alloca i32, align 4
  %3 = alloca ptr, align 8
  %4 = alloca i32, align 4
  store ptr %0, ptr %3, align 8
  store i32 0, ptr %4, align 4
  br label %5

5:                                                ; preds = %28, %1
  %6 = load i32, ptr %4, align 4
  %7 = sext i32 %6 to i64
  %8 = getelementptr inbounds [16 x %struct.Prs_VerPrim_t_], ptr @s_VerilogPrims, i64 0, i64 %7
  %9 = getelementptr inbounds %struct.Prs_VerPrim_t_, ptr %8, i32 0, i32 1
  %10 = load ptr, ptr %9, align 8
  %11 = icmp ne ptr %10, null
  br i1 %11, label %12, label %31

12:                                               ; preds = %5
  %13 = load ptr, ptr %3, align 8
  %14 = load i32, ptr %4, align 4
  %15 = sext i32 %14 to i64
  %16 = getelementptr inbounds [16 x %struct.Prs_VerPrim_t_], ptr @s_VerilogPrims, i64 0, i64 %15
  %17 = getelementptr inbounds %struct.Prs_VerPrim_t_, ptr %16, i32 0, i32 1
  %18 = load ptr, ptr %17, align 8
  %19 = call i32 @strcmp(ptr noundef %13, ptr noundef %18) #11
  %20 = icmp ne i32 %19, 0
  br i1 %20, label %27, label %21

21:                                               ; preds = %12
  %22 = load i32, ptr %4, align 4
  %23 = sext i32 %22 to i64
  %24 = getelementptr inbounds [16 x %struct.Prs_VerPrim_t_], ptr @s_VerilogPrims, i64 0, i64 %23
  %25 = getelementptr inbounds %struct.Prs_VerPrim_t_, ptr %24, i32 0, i32 0
  %26 = load i32, ptr %25, align 16
  store i32 %26, ptr %2, align 4
  br label %32

27:                                               ; preds = %12
  br label %28

28:                                               ; preds = %27
  %29 = load i32, ptr %4, align 4
  %30 = add nsw i32 %29, 1
  store i32 %30, ptr %4, align 4
  br label %5, !llvm.loop !87

31:                                               ; preds = %5
  store i32 0, ptr %2, align 4
  br label %32

32:                                               ; preds = %31, %21
  %33 = load i32, ptr %2, align 4
  ret i32 %33
}