; Function Attrs: nofree nounwind memory(read, inaccessiblemem: none) uwtable
define internal fastcc i32 @Prs_ManIsVerilogPrim(ptr noundef readonly captures(none) %0) unnamed_addr #13 {
  %2 = tail call i32 @strcmp(ptr noundef nonnull dereferenceable(1) %0, ptr noundef nonnull dereferenceable(4) @.str.185) #31
  %.not714 = icmp eq i32 %2, 0
  br i1 %.not714, label %._crit_edge, label %.lr.ph

.lr.ph:                                           ; preds = %1, %3
  %indvars.iv15 = phi i64 [ %indvars.iv.next, %3 ], [ 0, %1 ]
  %indvars.iv.next = add nuw nsw i64 %indvars.iv15, 1
  %exitcond = icmp eq i64 %indvars.iv.next, 9
  br i1 %exitcond, label %.loopexit, label %3, !llvm.loop !89

3:                                                ; preds = %.lr.ph
  %4 = getelementptr inbounds nuw [16 x %struct.Prs_VerPrim_t_], ptr @s_VerilogPrims, i64 0, i64 %indvars.iv.next
  %5 = getelementptr inbounds nuw i8, ptr %4, i64 8
  %6 = load ptr, ptr %5, align 8
  %7 = tail call i32 @strcmp(ptr noundef nonnull dereferenceable(1) %0, ptr noundef nonnull dereferenceable(1) %6) #31
  %.not7 = icmp eq i32 %7, 0
  br i1 %.not7, label %._crit_edge, label %.lr.ph, !llvm.loop !89

._crit_edge:                                      ; preds = %3, %1
  %.lcssa = phi ptr [ @s_VerilogPrims, %1 ], [ %4, %3 ]
  %8 = load i32, ptr %.lcssa, align 16
  br label %.loopexit

.loopexit:                                        ; preds = %.lr.ph, %._crit_edge
  %.05 = phi i32 [ %8, %._crit_edge ], [ 0, %.lr.ph ]
  ret i32 %.05
}